; ModuleID = '17/1434.c'
source_filename = "17/1434.c"
target datalayout = "e-m:e-p270:32:32-p271:32:32-p272:64:64-i64:64-f80:128-n8:16:32:64-S128"
target triple = "x86_64-pc-linux-gnu"

@.str = private unnamed_addr constant [3 x i8] c"%s\00", align 1
@s = common dso_local global [500 x i8] zeroinitializer, align 16
@z = common dso_local global [500 x i32] zeroinitializer, align 16
@.str.1 = private unnamed_addr constant [3 x i8] c"%c\00", align 1
@.str.2 = private unnamed_addr constant [2 x i8] c"\0A\00", align 1
@.str.3 = private unnamed_addr constant [2 x i8] c" \00", align 1
@.str.4 = private unnamed_addr constant [2 x i8] c"$\00", align 1
@.str.5 = private unnamed_addr constant [2 x i8] c"?\00", align 1

; Function Attrs: noinline nounwind uwtable
define dso_local i32 @main() #0 {
  %1 = alloca i32, align 4
  %2 = alloca i32, align 4
  %3 = alloca i32, align 4
  %4 = alloca i32, align 4
  %5 = alloca i32, align 4
  store i32 0, i32* %1, align 4
  br label %6

6:                                                ; preds = %48, %0
  %7 = call i32 (i8*, ...) @__isoc99_scanf(i8* getelementptr inbounds ([3 x i8], [3 x i8]* @.str, i64 0, i64 0), i8* getelementptr inbounds ([500 x i8], [500 x i8]* @s, i64 0, i64 0))
  %8 = icmp ne i32 %7, -1
  br i1 %8, label %9, label %51

9:                                                ; preds = %6
  store i32 0, i32* %4, align 4
  store i32 0, i32* %5, align 4
  %10 = call i64 @strlen(i8* getelementptr inbounds ([500 x i8], [500 x i8]* @s, i64 0, i64 0)) #3
  %11 = trunc i64 %10 to i32
  store i32 %11, i32* %2, align 4
  store i32 0, i32* %3, align 4
  br label %12

12:                                               ; preds = %45, %9
  %13 = load i32, i32* %3, align 4
  %14 = load i32, i32* %2, align 4
  %15 = sub nsw i32 %14, 1
  %16 = icmp sle i32 %13, %15
  br i1 %16, label %17, label %48

17:                                               ; preds = %12
  %18 = load i32, i32* %3, align 4
  %19 = sext i32 %18 to i64
  %20 = getelementptr inbounds [500 x i8], [500 x i8]* @s, i64 0, i64 %19
  %21 = load i8, i8* %20, align 1
  %22 = sext i8 %21 to i32
  %23 = icmp eq i32 %22, 40
  br i1 %23, label %24, label %28

24:                                               ; preds = %17
  %25 = load i32, i32* %3, align 4
  %26 = sext i32 %25 to i64
  %27 = getelementptr inbounds [500 x i32], [500 x i32]* @z, i64 0, i64 %26
  store i32 1, i32* %27, align 4
  br label %44

28:                                               ; preds = %17
  %29 = load i32, i32* %3, align 4
  %30 = sext i32 %29 to i64
  %31 = getelementptr inbounds [500 x i8], [500 x i8]* @s, i64 0, i64 %30
  %32 = load i8, i8* %31, align 1
  %33 = sext i8 %32 to i32
  %34 = icmp eq i32 %33, 41
  br i1 %34, label %35, label %39

35:                                               ; preds = %28
  %36 = load i32, i32* %3, align 4
  %37 = sext i32 %36 to i64
  %38 = getelementptr inbounds [500 x i32], [500 x i32]* @z, i64 0, i64 %37
  store i32 2, i32* %38, align 4
  br label %43

39:                                               ; preds = %28
  %40 = load i32, i32* %3, align 4
  %41 = sext i32 %40 to i64
  %42 = getelementptr inbounds [500 x i32], [500 x i32]* @z, i64 0, i64 %41
  store i32 0, i32* %42, align 4
  br label %43

43:                                               ; preds = %39, %35
  br label %44

44:                                               ; preds = %43, %24
  br label %45

45:                                               ; preds = %44
  %46 = load i32, i32* %3, align 4
  %47 = add nsw i32 %46, 1
  store i32 %47, i32* %3, align 4
  br label %12

48:                                               ; preds = %12
  %49 = load i32, i32* %2, align 4
  call void @search(i32* getelementptr inbounds ([500 x i32], [500 x i32]* @z, i64 0, i64 0), i32 %49)
  %50 = load i32, i32* %2, align 4
  call void @print(i32 %50, i32* getelementptr inbounds ([500 x i32], [500 x i32]* @z, i64 0, i64 0), i8* getelementptr inbounds ([500 x i8], [500 x i8]* @s, i64 0, i64 0))
  br label %6

51:                                               ; preds = %6
  ret i32 0
}

declare dso_local i32 @__isoc99_scanf(i8*, ...) #1

; Function Attrs: nounwind readonly
declare dso_local i64 @strlen(i8*) #2

; Function Attrs: noinline nounwind uwtable
define dso_local void @search(i32* %0, i32 %1) #0 {
  %3 = alloca i32*, align 8
  %4 = alloca i32, align 4
  %5 = alloca i32, align 4
  %6 = alloca i32, align 4
  %7 = alloca i32, align 4
  store i32* %0, i32** %3, align 8
  store i32 %1, i32* %4, align 4
  store i32 1, i32* %6, align 4
  br label %8

8:                                                ; preds = %53, %2
  %9 = load i32, i32* %6, align 4
  %10 = load i32, i32* %4, align 4
  %11 = sub nsw i32 %10, 1
  %12 = icmp sle i32 %9, %11
  br i1 %12, label %13, label %56

13:                                               ; preds = %8
  store i32 0, i32* %5, align 4
  br label %14

14:                                               ; preds = %49, %13
  %15 = load i32, i32* %5, align 4
  %16 = load i32, i32* %6, align 4
  %17 = add nsw i32 %15, %16
  %18 = load i32, i32* %4, align 4
  %19 = sub nsw i32 %18, 1
  %20 = icmp sle i32 %17, %19
  br i1 %20, label %21, label %52

21:                                               ; preds = %14
  %22 = load i32*, i32** %3, align 8
  %23 = load i32, i32* %5, align 4
  %24 = sext i32 %23 to i64
  %25 = getelementptr inbounds i32, i32* %22, i64 %24
  %26 = load i32, i32* %25, align 4
  %27 = icmp eq i32 %26, 1
  br i1 %27, label %28, label %48

28:                                               ; preds = %21
  %29 = load i32*, i32** %3, align 8
  %30 = load i32, i32* %5, align 4
  %31 = load i32, i32* %6, align 4
  %32 = add nsw i32 %30, %31
  %33 = sext i32 %32 to i64
  %34 = getelementptr inbounds i32, i32* %29, i64 %33
  %35 = load i32, i32* %34, align 4
  %36 = icmp eq i32 %35, 2
  br i1 %36, label %37, label %48

37:                                               ; preds = %28
  %38 = load i32*, i32** %3, align 8
  %39 = load i32, i32* %5, align 4
  %40 = sext i32 %39 to i64
  %41 = getelementptr inbounds i32, i32* %38, i64 %40
  store i32 0, i32* %41, align 4
  %42 = load i32*, i32** %3, align 8
  %43 = load i32, i32* %5, align 4
  %44 = load i32, i32* %6, align 4
  %45 = add nsw i32 %43, %44
  %46 = sext i32 %45 to i64
  %47 = getelementptr inbounds i32, i32* %42, i64 %46
  store i32 0, i32* %47, align 4
  br label %48

48:                                               ; preds = %37, %28, %21
  br label %49

49:                                               ; preds = %48
  %50 = load i32, i32* %5, align 4
  %51 = add nsw i32 %50, 1
  store i32 %51, i32* %5, align 4
  br label %14

52:                                               ; preds = %14
  br label %53

53:                                               ; preds = %52
  %54 = load i32, i32* %6, align 4
  %55 = add nsw i32 %54, 1
  store i32 %55, i32* %6, align 4
  br label %8

56:                                               ; preds = %8
  ret void
}

; Function Attrs: noinline nounwind uwtable
define dso_local void @print(i32 %0, i32* %1, i8* %2) #0 {
  %4 = alloca i32, align 4
  %5 = alloca i32*, align 8
  %6 = alloca i8*, align 8
  %7 = alloca i32, align 4
  store i32 %0, i32* %4, align 4
  store i32* %1, i32** %5, align 8
  store i8* %2, i8** %6, align 8
  store i32 0, i32* %7, align 4
  br label %8

8:                                                ; preds = %20, %3
  %9 = load i32, i32* %7, align 4
  %10 = load i32, i32* %4, align 4
  %11 = icmp slt i32 %9, %10
  br i1 %11, label %12, label %23

12:                                               ; preds = %8
  %13 = load i8*, i8** %6, align 8
  %14 = load i32, i32* %7, align 4
  %15 = sext i32 %14 to i64
  %16 = getelementptr inbounds i8, i8* %13, i64 %15
  %17 = load i8, i8* %16, align 1
  %18 = sext i8 %17 to i32
  %19 = call i32 (i8*, ...) @printf(i8* getelementptr inbounds ([3 x i8], [3 x i8]* @.str.1, i64 0, i64 0), i32 %18)
  br label %20

20:                                               ; preds = %12
  %21 = load i32, i32* %7, align 4
  %22 = add nsw i32 %21, 1
  store i32 %22, i32* %7, align 4
  br label %8

23:                                               ; preds = %8
  %24 = call i32 (i8*, ...) @printf(i8* getelementptr inbounds ([2 x i8], [2 x i8]* @.str.2, i64 0, i64 0))
  store i32 0, i32* %7, align 4
  br label %25

25:                                               ; preds = %57, %23
  %26 = load i32, i32* %7, align 4
  %27 = load i32, i32* %4, align 4
  %28 = icmp slt i32 %26, %27
  br i1 %28, label %29, label %60

29:                                               ; preds = %25
  %30 = load i32*, i32** %5, align 8
  %31 = load i32, i32* %7, align 4
  %32 = sext i32 %31 to i64
  %33 = getelementptr inbounds i32, i32* %30, i64 %32
  %34 = load i32, i32* %33, align 4
  %35 = icmp eq i32 %34, 0
  br i1 %35, label %36, label %38

36:                                               ; preds = %29
  %37 = call i32 (i8*, ...) @printf(i8* getelementptr inbounds ([2 x i8], [2 x i8]* @.str.3, i64 0, i64 0))
  br label %38

38:                                               ; preds = %36, %29
  %39 = load i32*, i32** %5, align 8
  %40 = load i32, i32* %7, align 4
  %41 = sext i32 %40 to i64
  %42 = getelementptr inbounds i32, i32* %39, i64 %41
  %43 = load i32, i32* %42, align 4
  %44 = icmp eq i32 %43, 1
  br i1 %44, label %45, label %47

45:                                               ; preds = %38
  %46 = call i32 (i8*, ...) @printf(i8* getelementptr inbounds ([2 x i8], [2 x i8]* @.str.4, i64 0, i64 0))
  br label %47

47:                                               ; preds = %45, %38
  %48 = load i32*, i32** %5, align 8
  %49 = load i32, i32* %7, align 4
  %50 = sext i32 %49 to i64
  %51 = getelementptr inbounds i32, i32* %48, i64 %50
  %52 = load i32, i32* %51, align 4
  %53 = icmp eq i32 %52, 2
  br i1 %53, label %54, label %56

54:                                               ; preds = %47
  %55 = call i32 (i8*, ...) @printf(i8* getelementptr inbounds ([2 x i8], [2 x i8]* @.str.5, i64 0, i64 0))
  br label %56

56:                                               ; preds = %54, %47
  br label %57

57:                                               ; preds = %56
  %58 = load i32, i32* %7, align 4
  %59 = add nsw i32 %58, 1
  store i32 %59, i32* %7, align 4
  br label %25

60:                                               ; preds = %25
  %61 = call i32 (i8*, ...) @printf(i8* getelementptr inbounds ([2 x i8], [2 x i8]* @.str.2, i64 0, i64 0))
  ret void
}

declare dso_local i32 @printf(i8*, ...) #1


!llvm.module.flags = !{!0}
!llvm.ident = !{!1}

!0 = !{i32 1, !"wchar_size", i32 4}
!1 = !{!"clang version 10.0.0-4ubuntu1 "}
